target datalayout = "e-m:e-p270:32:32-p271:32:32-p272:64:64-i64:64-i128:128-f80:128-n8:16:32:64-S128"
target triple = "x86_64-pc-linux-gnu"

@_ZN7TypeInt3INTE = external global ptr, align 8
@_ZN7TypePtr7NOTNULLE = external global ptr, align 8

; Function Attrs: mustprogress nounwind uwtable
define hidden noundef ptr @_ZN11OptoRuntime24ghash_processBlocks_TypeEv() #1 align 2 {
  %1 = alloca i32, align 4
  %2 = alloca ptr, align 8
  %3 = alloca i32, align 4
  %4 = alloca ptr, align 8
  %5 = alloca ptr, align 8
  store i32 4, ptr %1, align 4
  %6 = load i32, ptr %1, align 4
  %7 = call noundef ptr @_ZN9TypeTuple6fieldsEj(i32 noundef %6)
  store ptr %7, ptr %2, align 8
  store i32 5, ptr %3, align 4
  %8 = load ptr, ptr @_ZN7TypePtr7NOTNULLE, align 8
  %9 = load ptr, ptr %2, align 8
  %10 = load i32, ptr %3, align 4
  %11 = add nsw i32 %10, 1
  store i32 %11, ptr %3, align 4
  %12 = sext i32 %10 to i64
  %13 = getelementptr inbounds ptr, ptr %9, i64 %12
  store ptr %8, ptr %13, align 8
  %14 = load ptr, ptr @_ZN7TypePtr7NOTNULLE, align 8
  %15 = load ptr, ptr %2, align 8
  %16 = load i32, ptr %3, align 4
  %17 = add nsw i32 %16, 1
  store i32 %17, ptr %3, align 4
  %18 = sext i32 %16 to i64
  %19 = getelementptr inbounds ptr, ptr %15, i64 %18
  store ptr %14, ptr %19, align 8
  %20 = load ptr, ptr @_ZN7TypePtr7NOTNULLE, align 8
  %21 = load ptr, ptr %2, align 8
  %22 = load i32, ptr %3, align 4
  %23 = add nsw i32 %22, 1
  store i32 %23, ptr %3, align 4
  %24 = sext i32 %22 to i64
  %25 = getelementptr inbounds ptr, ptr %21, i64 %24
  store ptr %20, ptr %25, align 8
  %26 = load ptr, ptr @_ZN7TypeInt3INTE, align 8
  %27 = load ptr, ptr %2, align 8
  %28 = load i32, ptr %3, align 4
  %29 = add nsw i32 %28, 1
  store i32 %29, ptr %3, align 4
  %30 = sext i32 %28 to i64
  %31 = getelementptr inbounds ptr, ptr %27, i64 %30
  store ptr %26, ptr %31, align 8
  %32 = load i32, ptr %1, align 4
  %33 = add nsw i32 5, %32
  %34 = load ptr, ptr %2, align 8
  %35 = call noundef ptr @_ZN9TypeTuple4makeEjPPK4Type(i32 noundef %33, ptr noundef %34)
  store ptr %35, ptr %4, align 8
  %36 = call noundef ptr @_ZN9TypeTuple6fieldsEj(i32 noundef 1)
  store ptr %36, ptr %2, align 8
  %37 = load ptr, ptr %2, align 8
  %38 = getelementptr inbounds ptr, ptr %37, i64 5
  store ptr null, ptr %38, align 8
  %39 = load ptr, ptr %2, align 8
  %40 = call noundef ptr @_ZN9TypeTuple4makeEjPPK4Type(i32 noundef 5, ptr noundef %39)
  store ptr %40, ptr %5, align 8
  %41 = load ptr, ptr %4, align 8
  %42 = load ptr, ptr %5, align 8
  %43 = call noundef ptr @_ZN8TypeFunc4makeEPK9TypeTupleS2_(ptr noundef %41, ptr noundef %42)
  ret ptr %43
}