; Function Attrs: mustprogress nounwind uwtable
define hidden noundef ptr @_ZN11OptoRuntime24ghash_processBlocks_TypeEv() local_unnamed_addr #0 align 2 {
  %1 = tail call noundef ptr @_ZN9TypeTuple6fieldsEj(i32 noundef 4) #12
  %2 = load ptr, ptr @_ZN7TypePtr7NOTNULLE, align 8
  %3 = getelementptr inbounds i8, ptr %1, i64 40
  store ptr %2, ptr %3, align 8
  %4 = getelementptr inbounds i8, ptr %1, i64 48
  store ptr %2, ptr %4, align 8
  %5 = getelementptr inbounds i8, ptr %1, i64 56
  store ptr %2, ptr %5, align 8
  %6 = load ptr, ptr @_ZN7TypeInt3INTE, align 8
  %7 = getelementptr inbounds i8, ptr %1, i64 64
  store ptr %6, ptr %7, align 8
  %8 = tail call noundef ptr @_ZN9TypeTuple4makeEjPPK4Type(i32 noundef 9, ptr noundef %1) #12
  %9 = tail call noundef ptr @_ZN9TypeTuple6fieldsEj(i32 noundef 1) #12
  %10 = getelementptr inbounds i8, ptr %9, i64 40
  store ptr null, ptr %10, align 8
  %11 = tail call noundef ptr @_ZN9TypeTuple4makeEjPPK4Type(i32 noundef 5, ptr noundef %9) #12
  %12 = tail call noundef ptr @_ZN8TypeFunc4makeEPK9TypeTupleS2_(ptr noundef %8, ptr noundef %11) #12
  ret ptr %12
}